; ModuleID = 'source-C-CXX/56/1303.cpp'
source_filename = "source-C-CXX/56/1303.cpp"
target datalayout = "e-m:e-p270:32:32-p271:32:32-p272:64:64-i64:64-f80:128-n8:16:32:64-S128"
target triple = "x86_64-pc-linux-gnu"

%"class.std::ios_base::Init" = type { i8 }
%"class.std::basic_istream" = type { i32 (...)**, i64, %"class.std::basic_ios" }
%"class.std::basic_ios" = type { %"class.std::ios_base", %"class.std::basic_ostream"*, i8, i8, %"class.std::basic_streambuf"*, %"class.std::ctype"*, %"class.std::num_put"*, %"class.std::num_get"* }
%"class.std::ios_base" = type { i32 (...)**, i64, i64, i32, i32, i32, %"struct.std::ios_base::_Callback_list"*, %"struct.std::ios_base::_Words", [8 x %"struct.std::ios_base::_Words"], i32, %"struct.std::ios_base::_Words"*, %"class.std::locale" }
%"struct.std::ios_base::_Callback_list" = type { %"struct.std::ios_base::_Callback_list"*, void (i32, %"class.std::ios_base"*, i32)*, i32, i32 }
%"struct.std::ios_base::_Words" = type { i8*, i64 }
%"class.std::locale" = type { %"class.std::locale::_Impl"* }
%"class.std::locale::_Impl" = type { i32, %"class.std::locale::facet"**, i64, %"class.std::locale::facet"**, i8** }
%"class.std::locale::facet" = type <{ i32 (...)**, i32, [4 x i8] }>
%"class.std::basic_ostream" = type { i32 (...)**, %"class.std::basic_ios" }
%"class.std::basic_streambuf" = type { i32 (...)**, i8*, i8*, i8*, i8*, i8*, i8*, %"class.std::locale" }
%"class.std::ctype" = type <{ %"class.std::locale::facet.base", [4 x i8], %struct.__locale_struct*, i8, [7 x i8], i32*, i32*, i16*, i8, [256 x i8], [256 x i8], i8, [6 x i8] }>
%"class.std::locale::facet.base" = type <{ i32 (...)**, i32 }>
%struct.__locale_struct = type { [13 x %struct.__locale_data*], i16*, i32*, i32*, [13 x i8*] }
%struct.__locale_data = type opaque
%"class.std::num_put" = type { %"class.std::locale::facet.base", [4 x i8] }
%"class.std::num_get" = type { %"class.std::locale::facet.base", [4 x i8] }

@_ZStL8__ioinit = internal global %"class.std::ios_base::Init" zeroinitializer, align 1
@__dso_handle = external hidden global i8
@_ZSt3cin = external global %"class.std::basic_istream", align 8
@_ZSt4cout = external global %"class.std::basic_ostream", align 8
@llvm.global_ctors = appending global [1 x { i32, void ()*, i8* }] [{ i32, void ()*, i8* } { i32 65535, void ()* @_GLOBAL__sub_I_1303.cpp, i8* null }]

declare void @_ZNSt8ios_base4InitC1Ev(%"class.std::ios_base::Init"* nonnull align 1 dereferenceable(1)) unnamed_addr #0

; Function Attrs: nounwind
declare void @_ZNSt8ios_base4InitD1Ev(%"class.std::ios_base::Init"* nonnull align 1 dereferenceable(1)) unnamed_addr #1

; Function Attrs: nofree nounwind
declare i32 @__cxa_atexit(void (i8*)*, i8*, i8*) local_unnamed_addr #2

; Function Attrs: mustprogress norecurse sspstrong uwtable
define dso_local i32 @main() local_unnamed_addr #3 {
  %1 = alloca i32, align 4
  %2 = alloca [50 x [33 x i8]], align 16
  %3 = bitcast i32* %1 to i8*
  call void @llvm.lifetime.start.p0i8(i64 4, i8* nonnull %3) #8
  %4 = getelementptr inbounds [50 x [33 x i8]], [50 x [33 x i8]]* %2, i64 0, i64 0, i64 0
  call void @llvm.lifetime.start.p0i8(i64 1650, i8* nonnull %4) #8
  %5 = call nonnull align 8 dereferenceable(16) %"class.std::basic_istream"* @_ZNSirsERi(%"class.std::basic_istream"* nonnull align 8 dereferenceable(16) @_ZSt3cin, i32* nonnull align 4 dereferenceable(4) %1)
  %6 = call nonnull align 8 dereferenceable(16) %"class.std::basic_istream"* @_ZNSi6ignoreEv(%"class.std::basic_istream"* nonnull align 8 dereferenceable(16) @_ZSt3cin)
  %7 = load i32, i32* %1, align 4, !tbaa !5
  %8 = icmp sgt i32 %7, 0
  br i1 %8, label %11, label %90

9:                                                ; preds = %11
  %10 = icmp sgt i32 %15, 0
  br i1 %10, label %18, label %90

11:                                               ; preds = %0, %11
  %12 = phi i64 [ %14, %11 ], [ 0, %0 ]
  %13 = getelementptr inbounds [50 x [33 x i8]], [50 x [33 x i8]]* %2, i64 0, i64 %12, i64 0
  call void @_ZSt17__istream_extractRSiPcl(%"class.std::basic_istream"* nonnull align 8 dereferenceable(16) @_ZSt3cin, i8* nonnull %13, i64 9223372036854775807)
  %14 = add nuw nsw i64 %12, 1
  %15 = load i32, i32* %1, align 4, !tbaa !5
  %16 = sext i32 %15 to i64
  %17 = icmp slt i64 %14, %16
  br i1 %17, label %11, label %9, !llvm.loop !9

18:                                               ; preds = %9, %82
  %19 = phi i64 [ %86, %82 ], [ 0, %9 ]
  %20 = getelementptr inbounds [50 x [33 x i8]], [50 x [33 x i8]]* %2, i64 0, i64 %19, i64 0
  %21 = call i64 @strlen(i8* noundef nonnull %20) #9
  %22 = shl i64 %21, 32
  %23 = add i64 %22, -8589934592
  %24 = ashr exact i64 %23, 32
  %25 = getelementptr inbounds [50 x [33 x i8]], [50 x [33 x i8]]* %2, i64 0, i64 %19, i64 %24
  %26 = load i8, i8* %25, align 1, !tbaa !11
  switch i8 %26, label %40 [
    i8 101, label %27
    i8 108, label %33
  ]

27:                                               ; preds = %18
  %28 = add i64 %22, -4294967296
  %29 = ashr exact i64 %28, 32
  %30 = getelementptr inbounds [50 x [33 x i8]], [50 x [33 x i8]]* %2, i64 0, i64 %19, i64 %29
  %31 = load i8, i8* %30, align 1, !tbaa !11
  %32 = icmp eq i8 %31, 114
  br i1 %32, label %39, label %40

33:                                               ; preds = %18
  %34 = add i64 %22, -4294967296
  %35 = ashr exact i64 %34, 32
  %36 = getelementptr inbounds [50 x [33 x i8]], [50 x [33 x i8]]* %2, i64 0, i64 %19, i64 %35
  %37 = load i8, i8* %36, align 1, !tbaa !11
  %38 = icmp eq i8 %37, 121
  br i1 %38, label %39, label %40

39:                                               ; preds = %33, %27
  store i8 0, i8* %25, align 1, !tbaa !11
  br label %40

40:                                               ; preds = %39, %18, %27, %33
  %41 = phi i8 [ 108, %33 ], [ 101, %27 ], [ %26, %18 ], [ 0, %39 ]
  %42 = add i64 %22, -12884901888
  %43 = ashr exact i64 %42, 32
  %44 = getelementptr inbounds [50 x [33 x i8]], [50 x [33 x i8]]* %2, i64 0, i64 %19, i64 %43
  %45 = load i8, i8* %44, align 1, !tbaa !11
  %46 = icmp eq i8 %45, 105
  %47 = icmp eq i8 %41, 110
  %48 = select i1 %46, i1 %47, i1 false
  br i1 %48, label %49, label %56

49:                                               ; preds = %40
  %50 = add i64 %22, -4294967296
  %51 = ashr exact i64 %50, 32
  %52 = getelementptr inbounds [50 x [33 x i8]], [50 x [33 x i8]]* %2, i64 0, i64 %19, i64 %51
  %53 = load i8, i8* %52, align 1, !tbaa !11
  %54 = icmp eq i8 %53, 103
  br i1 %54, label %55, label %56

55:                                               ; preds = %49
  store i8 0, i8* %44, align 1, !tbaa !11
  br label %56

56:                                               ; preds = %49, %55, %40
  %57 = call i64 @strlen(i8* noundef nonnull dereferenceable(1) %20) #8
  %58 = call nonnull align 8 dereferenceable(8) %"class.std::basic_ostream"* @_ZSt16__ostream_insertIcSt11char_traitsIcEERSt13basic_ostreamIT_T0_ES6_PKS3_l(%"class.std::basic_ostream"* nonnull align 8 dereferenceable(8) @_ZSt4cout, i8* nonnull %20, i64 %57)
  %59 = load i8*, i8** bitcast (%"class.std::basic_ostream"* @_ZSt4cout to i8**), align 8, !tbaa !12
  %60 = getelementptr i8, i8* %59, i64 -24
  %61 = bitcast i8* %60 to i64*
  %62 = load i64, i64* %61, align 8
  %63 = add nsw i64 %62, 240
  %64 = getelementptr inbounds i8, i8* bitcast (%"class.std::basic_ostream"* @_ZSt4cout to i8*), i64 %63
  %65 = bitcast i8* %64 to %"class.std::ctype"**
  %66 = load %"class.std::ctype"*, %"class.std::ctype"** %65, align 8, !tbaa !14
  %67 = icmp eq %"class.std::ctype"* %66, null
  br i1 %67, label %68, label %69

68:                                               ; preds = %56
  call void @_ZSt16__throw_bad_castv() #10
  unreachable

69:                                               ; preds = %56
  %70 = getelementptr inbounds %"class.std::ctype", %"class.std::ctype"* %66, i64 0, i32 8
  %71 = load i8, i8* %70, align 8, !tbaa !18
  %72 = icmp eq i8 %71, 0
  br i1 %72, label %76, label %73

73:                                               ; preds = %69
  %74 = getelementptr inbounds %"class.std::ctype", %"class.std::ctype"* %66, i64 0, i32 9, i64 10
  %75 = load i8, i8* %74, align 1, !tbaa !11
  br label %82

76:                                               ; preds = %69
  call void @_ZNKSt5ctypeIcE13_M_widen_initEv(%"class.std::ctype"* nonnull align 8 dereferenceable(570) %66)
  %77 = bitcast %"class.std::ctype"* %66 to i8 (%"class.std::ctype"*, i8)***
  %78 = load i8 (%"class.std::ctype"*, i8)**, i8 (%"class.std::ctype"*, i8)*** %77, align 8, !tbaa !12
  %79 = getelementptr inbounds i8 (%"class.std::ctype"*, i8)*, i8 (%"class.std::ctype"*, i8)** %78, i64 6
  %80 = load i8 (%"class.std::ctype"*, i8)*, i8 (%"class.std::ctype"*, i8)** %79, align 8
  %81 = call signext i8 %80(%"class.std::ctype"* nonnull align 8 dereferenceable(570) %66, i8 signext 10)
  br label %82

82:                                               ; preds = %73, %76
  %83 = phi i8 [ %75, %73 ], [ %81, %76 ]
  %84 = call nonnull align 8 dereferenceable(8) %"class.std::basic_ostream"* @_ZNSo3putEc(%"class.std::basic_ostream"* nonnull align 8 dereferenceable(8) @_ZSt4cout, i8 signext %83)
  %85 = call nonnull align 8 dereferenceable(8) %"class.std::basic_ostream"* @_ZNSo5flushEv(%"class.std::basic_ostream"* nonnull align 8 dereferenceable(8) %84)
  %86 = add nuw nsw i64 %19, 1
  %87 = load i32, i32* %1, align 4, !tbaa !5
  %88 = sext i32 %87 to i64
  %89 = icmp slt i64 %86, %88
  br i1 %89, label %18, label %90, !llvm.loop !20

90:                                               ; preds = %82, %0, %9
  call void @llvm.lifetime.end.p0i8(i64 1650, i8* nonnull %4) #8
  call void @llvm.lifetime.end.p0i8(i64 4, i8* nonnull %3) #8
  ret i32 0
}

; Function Attrs: argmemonly mustprogress nofree nosync nounwind willreturn
declare void @llvm.lifetime.start.p0i8(i64 immarg, i8* nocapture) #4

declare nonnull align 8 dereferenceable(16) %"class.std::basic_istream"* @_ZNSirsERi(%"class.std::basic_istream"* nonnull align 8 dereferenceable(16), i32* nonnull align 4 dereferenceable(4)) local_unnamed_addr #0

declare nonnull align 8 dereferenceable(16) %"class.std::basic_istream"* @_ZNSi6ignoreEv(%"class.std::basic_istream"* nonnull align 8 dereferenceable(16)) local_unnamed_addr #0

; Function Attrs: argmemonly mustprogress nofree nounwind readonly willreturn
declare i64 @strlen(i8* nocapture) local_unnamed_addr #5

; Function Attrs: argmemonly mustprogress nofree nosync nounwind willreturn
declare void @llvm.lifetime.end.p0i8(i64 immarg, i8* nocapture) #4

declare void @_ZSt17__istream_extractRSiPcl(%"class.std::basic_istream"* nonnull align 8 dereferenceable(16), i8*, i64) local_unnamed_addr #0

declare nonnull align 8 dereferenceable(8) %"class.std::basic_ostream"* @_ZSt16__ostream_insertIcSt11char_traitsIcEERSt13basic_ostreamIT_T0_ES6_PKS3_l(%"class.std::basic_ostream"* nonnull align 8 dereferenceable(8), i8*, i64) local_unnamed_addr #0

declare nonnull align 8 dereferenceable(8) %"class.std::basic_ostream"* @_ZNSo3putEc(%"class.std::basic_ostream"* nonnull align 8 dereferenceable(8), i8 signext) local_unnamed_addr #0

declare nonnull align 8 dereferenceable(8) %"class.std::basic_ostream"* @_ZNSo5flushEv(%"class.std::basic_ostream"* nonnull align 8 dereferenceable(8)) local_unnamed_addr #0

; Function Attrs: noreturn
declare void @_ZSt16__throw_bad_castv() local_unnamed_addr #6

declare void @_ZNKSt5ctypeIcE13_M_widen_initEv(%"class.std::ctype"* nonnull align 8 dereferenceable(570)) local_unnamed_addr #0

; Function Attrs: sspstrong uwtable
define internal void @_GLOBAL__sub_I_1303.cpp() #7 section ".text.startup" {
  tail call void @_ZNSt8ios_base4InitC1Ev(%"class.std::ios_base::Init"* nonnull align 1 dereferenceable(1) @_ZStL8__ioinit)
  %1 = tail call i32 @__cxa_atexit(void (i8*)* bitcast (void (%"class.std::ios_base::Init"*)* @_ZNSt8ios_base4InitD1Ev to void (i8*)*), i8* getelementptr inbounds (%"class.std::ios_base::Init", %"class.std::ios_base::Init"* @_ZStL8__ioinit, i64 0, i32 0), i8* nonnull @__dso_handle) #8
  ret void
}


!llvm.module.flags = !{!0, !1, !2, !3}
!llvm.ident = !{!4}

!0 = !{i32 1, !"wchar_size", i32 4}
!1 = !{i32 7, !"PIC Level", i32 2}
!2 = !{i32 7, !"PIE Level", i32 2}
!3 = !{i32 7, !"uwtable", i32 1}
!4 = !{!"clang version 13.0.0"}
!5 = !{!6, !6, i64 0}
!6 = !{!"int", !7, i64 0}
!7 = !{!"omnipotent char", !8, i64 0}
!8 = !{!"Simple C++ TBAA"}
!9 = distinct !{!9, !10}
!10 = !{!"llvm.loop.mustprogress"}
!11 = !{!7, !7, i64 0}
!12 = !{!13, !13, i64 0}
!13 = !{!"vtable pointer", !8, i64 0}
!14 = !{!15, !16, i64 240}
!15 = !{!"_ZTSSt9basic_iosIcSt11char_traitsIcEE", !16, i64 216, !7, i64 224, !17, i64 225, !16, i64 232, !16, i64 240, !16, i64 248, !16, i64 256}
!16 = !{!"any pointer", !7, i64 0}
!17 = !{!"bool", !7, i64 0}
!18 = !{!19, !7, i64 56}
!19 = !{!"_ZTSSt5ctypeIcE", !16, i64 16, !17, i64 24, !16, i64 32, !16, i64 40, !16, i64 48, !7, i64 56, !7, i64 57, !7, i64 313, !7, i64 569}
!20 = distinct !{!20, !10}
